target datalayout = "e-m:e-p270:32:32-p271:32:32-p272:64:64-i64:64-i128:128-f80:128-n8:16:32:64-S128"
target triple = "x86_64-pc-linux-gnu"

%struct.evhttp_connection = type { %struct.anon, ptr, %struct.event, ptr, i16, ptr, i16, ptr, i64, i64, i32, %struct.timeval, %struct.timeval, %struct.timeval, i32, i32, %struct.timeval, i32, ptr, %struct.evcon_requestq, ptr, ptr, ptr, ptr, %struct.event_callback, ptr, ptr, i32, ptr }
%struct.anon = type { ptr, ptr }
%struct.event = type { %struct.event_callback, %union.anon.1, i32, i16, i16, ptr, %union.anon.3, %struct.timeval }
%union.anon.1 = type { %struct.anon.2 }
%struct.anon.2 = type { ptr, ptr }
%union.anon.3 = type { %struct.anon.4 }
%struct.anon.4 = type { %struct.anon.5, %struct.timeval }
%struct.anon.5 = type { ptr, ptr }
%struct.timeval = type { i64, i64 }
%struct.evcon_requestq = type { ptr, ptr }
%struct.event_callback = type { %struct.anon.0, i16, i8, i8, %union.anon, ptr }
%struct.anon.0 = type { ptr, ptr }
%union.anon = type { ptr }
%struct.evhttp_request = type { %struct.anon.8, ptr, i32, ptr, ptr, ptr, i16, ptr, i32, i32, i64, i64, ptr, ptr, i8, i8, i32, ptr, ptr, i64, i8, ptr, ptr, ptr, ptr, ptr, ptr, ptr, ptr }
%struct.anon.8 = type { ptr, ptr }
%struct.evkeyvalq = type { ptr, ptr }
%struct.evkeyval = type { %struct.anon.10, ptr, ptr }
%struct.anon.10 = type { ptr, ptr }

@.str.25 = private unnamed_addr constant [11 x i8] c"Connection\00", align 1
@.str.101 = private unnamed_addr constant [11 x i8] c"keep-alive\00", align 1

; Function Attrs: nounwind uwtable
define ptr @evhttp_find_header(ptr noundef %0, ptr noundef %1) #0 {
  %3 = alloca ptr, align 8
  %4 = alloca ptr, align 8
  %5 = alloca ptr, align 8
  %6 = alloca ptr, align 8
  %7 = alloca i32, align 4
  store ptr %0, ptr %4, align 8
  store ptr %1, ptr %5, align 8
  call void @llvm.lifetime.start.p0(i64 8, ptr %6) #11
  %8 = load ptr, ptr %4, align 8
  %9 = getelementptr inbounds nuw %struct.evkeyvalq, ptr %8, i32 0, i32 0
  %10 = load ptr, ptr %9, align 8
  store ptr %10, ptr %6, align 8
  br label %11

11:                                               ; preds = %26, %2
  %12 = load ptr, ptr %6, align 8
  %13 = icmp ne ptr %12, null
  br i1 %13, label %14, label %31

14:                                               ; preds = %11
  %15 = load ptr, ptr %6, align 8
  %16 = getelementptr inbounds nuw %struct.evkeyval, ptr %15, i32 0, i32 1
  %17 = load ptr, ptr %16, align 8
  %18 = load ptr, ptr %5, align 8
  %19 = call i32 @evutil_ascii_strcasecmp(ptr noundef %17, ptr noundef %18)
  %20 = icmp eq i32 %19, 0
  br i1 %20, label %21, label %25

21:                                               ; preds = %14
  %22 = load ptr, ptr %6, align 8
  %23 = getelementptr inbounds nuw %struct.evkeyval, ptr %22, i32 0, i32 2
  %24 = load ptr, ptr %23, align 8
  store ptr %24, ptr %3, align 8
  store i32 1, ptr %7, align 4
  br label %32

25:                                               ; preds = %14
  br label %26

26:                                               ; preds = %25
  %27 = load ptr, ptr %6, align 8
  %28 = getelementptr inbounds nuw %struct.evkeyval, ptr %27, i32 0, i32 0
  %29 = getelementptr inbounds nuw %struct.anon.10, ptr %28, i32 0, i32 0
  %30 = load ptr, ptr %29, align 8
  store ptr %30, ptr %6, align 8
  br label %11, !llvm.loop !7

31:                                               ; preds = %11
  store ptr null, ptr %3, align 8
  store i32 1, ptr %7, align 4
  br label %32

32:                                               ; preds = %31, %21
  call void @llvm.lifetime.end.p0(i64 8, ptr %6) #11
  %33 = load ptr, ptr %3, align 8
  ret ptr %33
}

; Function Attrs: nounwind uwtable
define internal i32 @evhttp_is_connection_keepalive(ptr noundef %0) #0 {
  %2 = alloca ptr, align 8
  %3 = alloca ptr, align 8
  store ptr %0, ptr %2, align 8
  call void @llvm.lifetime.start.p0(i64 8, ptr %3) #11
  %4 = load ptr, ptr %2, align 8
  %5 = call ptr @evhttp_find_header(ptr noundef %4, ptr noundef @.str.25)
  store ptr %5, ptr %3, align 8
  %6 = load ptr, ptr %3, align 8
  %7 = icmp ne ptr %6, null
  br i1 %7, label %8, label %12

8:                                                ; preds = %1
  %9 = load ptr, ptr %3, align 8
  %10 = call i32 @evutil_ascii_strncasecmp(ptr noundef %9, ptr noundef @.str.101, i64 noundef 10)
  %11 = icmp eq i32 %10, 0
  br label %12

12:                                               ; preds = %8, %1
  %13 = phi i1 [ false, %1 ], [ %11, %8 ]
  %14 = zext i1 %13 to i32
  call void @llvm.lifetime.end.p0(i64 8, ptr %3) #11
  ret i32 %14
}

; Function Attrs: nounwind uwtable
define internal void @evhttp_send_done(ptr noundef %0, ptr noundef %1) #0 {
  %3 = alloca ptr, align 8
  %4 = alloca ptr, align 8
  %5 = alloca i32, align 4
  %6 = alloca ptr, align 8
  %7 = alloca i32, align 4
  store ptr %0, ptr %3, align 8
  store ptr %1, ptr %4, align 8
  call void @llvm.lifetime.start.p0(i64 4, ptr %5) #11
  call void @llvm.lifetime.start.p0(i64 8, ptr %6) #11
  %8 = load ptr, ptr %3, align 8
  %9 = getelementptr inbounds nuw %struct.evhttp_connection, ptr %8, i32 0, i32 19
  %10 = getelementptr inbounds nuw %struct.evcon_requestq, ptr %9, i32 0, i32 0
  %11 = load ptr, ptr %10, align 8
  store ptr %11, ptr %6, align 8
  br label %12

12:                                               ; preds = %2
  %13 = load ptr, ptr %6, align 8
  %14 = getelementptr inbounds nuw %struct.evhttp_request, ptr %13, i32 0, i32 0
  %15 = getelementptr inbounds nuw %struct.anon.8, ptr %14, i32 0, i32 0
  %16 = load ptr, ptr %15, align 8
  %17 = icmp ne ptr %16, null
  br i1 %17, label %18, label %29

18:                                               ; preds = %12
  %19 = load ptr, ptr %6, align 8
  %20 = getelementptr inbounds nuw %struct.evhttp_request, ptr %19, i32 0, i32 0
  %21 = getelementptr inbounds nuw %struct.anon.8, ptr %20, i32 0, i32 1
  %22 = load ptr, ptr %21, align 8
  %23 = load ptr, ptr %6, align 8
  %24 = getelementptr inbounds nuw %struct.evhttp_request, ptr %23, i32 0, i32 0
  %25 = getelementptr inbounds nuw %struct.anon.8, ptr %24, i32 0, i32 0
  %26 = load ptr, ptr %25, align 8
  %27 = getelementptr inbounds nuw %struct.evhttp_request, ptr %26, i32 0, i32 0
  %28 = getelementptr inbounds nuw %struct.anon.8, ptr %27, i32 0, i32 1
  store ptr %22, ptr %28, align 8
  br label %37

29:                                               ; preds = %12
  %30 = load ptr, ptr %6, align 8
  %31 = getelementptr inbounds nuw %struct.evhttp_request, ptr %30, i32 0, i32 0
  %32 = getelementptr inbounds nuw %struct.anon.8, ptr %31, i32 0, i32 1
  %33 = load ptr, ptr %32, align 8
  %34 = load ptr, ptr %3, align 8
  %35 = getelementptr inbounds nuw %struct.evhttp_connection, ptr %34, i32 0, i32 19
  %36 = getelementptr inbounds nuw %struct.evcon_requestq, ptr %35, i32 0, i32 1
  store ptr %33, ptr %36, align 8
  br label %37

37:                                               ; preds = %29, %18
  %38 = load ptr, ptr %6, align 8
  %39 = getelementptr inbounds nuw %struct.evhttp_request, ptr %38, i32 0, i32 0
  %40 = getelementptr inbounds nuw %struct.anon.8, ptr %39, i32 0, i32 0
  %41 = load ptr, ptr %40, align 8
  %42 = load ptr, ptr %6, align 8
  %43 = getelementptr inbounds nuw %struct.evhttp_request, ptr %42, i32 0, i32 0
  %44 = getelementptr inbounds nuw %struct.anon.8, ptr %43, i32 0, i32 1
  %45 = load ptr, ptr %44, align 8
  store ptr %41, ptr %45, align 8
  br label %46

46:                                               ; preds = %37
  br label %47

47:                                               ; preds = %46
  %48 = load ptr, ptr %6, align 8
  %49 = getelementptr inbounds nuw %struct.evhttp_request, ptr %48, i32 0, i32 27
  %50 = load ptr, ptr %49, align 8
  %51 = icmp ne ptr %50, null
  br i1 %51, label %52, label %60

52:                                               ; preds = %47
  %53 = load ptr, ptr %6, align 8
  %54 = getelementptr inbounds nuw %struct.evhttp_request, ptr %53, i32 0, i32 27
  %55 = load ptr, ptr %54, align 8
  %56 = load ptr, ptr %6, align 8
  %57 = load ptr, ptr %6, align 8
  %58 = getelementptr inbounds nuw %struct.evhttp_request, ptr %57, i32 0, i32 28
  %59 = load ptr, ptr %58, align 8
  call void %55(ptr noundef %56, ptr noundef %59)
  br label %60

60:                                               ; preds = %52, %47
  %61 = load ptr, ptr %6, align 8
  %62 = getelementptr inbounds nuw %struct.evhttp_request, ptr %61, i32 0, i32 14
  %63 = load i8, ptr %62, align 8
  %64 = sext i8 %63 to i32
  %65 = icmp slt i32 %64, 1
  br i1 %65, label %78, label %66

66:                                               ; preds = %60
  %67 = load ptr, ptr %6, align 8
  %68 = getelementptr inbounds nuw %struct.evhttp_request, ptr %67, i32 0, i32 14
  %69 = load i8, ptr %68, align 8
  %70 = sext i8 %69 to i32
  %71 = icmp eq i32 %70, 1
  br i1 %71, label %72, label %84

72:                                               ; preds = %66
  %73 = load ptr, ptr %6, align 8
  %74 = getelementptr inbounds nuw %struct.evhttp_request, ptr %73, i32 0, i32 15
  %75 = load i8, ptr %74, align 1
  %76 = sext i8 %75 to i32
  %77 = icmp slt i32 %76, 1
  br i1 %77, label %78, label %84

78:                                               ; preds = %72, %60
  %79 = load ptr, ptr %6, align 8
  %80 = getelementptr inbounds nuw %struct.evhttp_request, ptr %79, i32 0, i32 3
  %81 = load ptr, ptr %80, align 8
  %82 = call i32 @evhttp_is_connection_keepalive(ptr noundef %81)
  %83 = icmp ne i32 %82, 0
  br i1 %83, label %84, label %88

84:                                               ; preds = %78, %72, %66
  %85 = load ptr, ptr %6, align 8
  %86 = call i32 @evhttp_is_request_connection_close(ptr noundef %85)
  %87 = icmp ne i32 %86, 0
  br label %88

88:                                               ; preds = %84, %78
  %89 = phi i1 [ true, %78 ], [ %87, %84 ]
  %90 = zext i1 %89 to i32
  store i32 %90, ptr %5, align 4
  br label %91

91:                                               ; preds = %88
  br label %92

92:                                               ; preds = %91
  br label %93

93:                                               ; preds = %92
  %94 = load ptr, ptr %6, align 8
  call void @evhttp_request_free(ptr noundef %94)
  %95 = load i32, ptr %5, align 4
  %96 = icmp ne i32 %95, 0
  br i1 %96, label %97, label %99

97:                                               ; preds = %93
  %98 = load ptr, ptr %3, align 8
  call void @evhttp_connection_free(ptr noundef %98)
  store i32 1, ptr %7, align 4
  br label %106

99:                                               ; preds = %93
  %100 = load ptr, ptr %3, align 8
  %101 = call i32 @evhttp_associate_new_request_with_connection(ptr noundef %100)
  %102 = icmp eq i32 %101, -1
  br i1 %102, label %103, label %105

103:                                              ; preds = %99
  %104 = load ptr, ptr %3, align 8
  call void @evhttp_connection_free(ptr noundef %104)
  br label %105

105:                                              ; preds = %103, %99
  store i32 0, ptr %7, align 4
  br label %106

106:                                              ; preds = %105, %97
  call void @llvm.lifetime.end.p0(i64 8, ptr %6) #11
  call void @llvm.lifetime.end.p0(i64 4, ptr %5) #11
  %107 = load i32, ptr %7, align 4
  switch i32 %107, label %109 [
    i32 0, label %108
    i32 1, label %108
  ]

108:                                              ; preds = %106, %106
  ret void

109:                                              ; preds = %106
  unreachable
}