; Function Attrs: nounwind uwtable
define internal void @evhttp_send_done(ptr noundef %0, ptr readnone captures(none) %1) #0 {
  %3 = getelementptr inbounds nuw i8, ptr %0, i64 296
  %4 = load ptr, ptr %3, align 8
  %5 = load ptr, ptr %4, align 8
  %.not = icmp eq ptr %5, null
  %6 = getelementptr inbounds nuw i8, ptr %4, i64 8
  %7 = load ptr, ptr %6, align 8
  br i1 %.not, label %10, label %8

8:                                                ; preds = %2
  %9 = getelementptr inbounds nuw i8, ptr %5, i64 8
  store ptr %7, ptr %9, align 8
  br label %12

10:                                               ; preds = %2
  %11 = getelementptr inbounds nuw i8, ptr %0, i64 304
  store ptr %7, ptr %11, align 8
  br label %12

12:                                               ; preds = %10, %8
  %13 = load ptr, ptr %4, align 8
  store ptr %13, ptr %7, align 8
  %14 = getelementptr inbounds nuw i8, ptr %4, i64 200
  %15 = load ptr, ptr %14, align 8
  %.not23 = icmp eq ptr %15, null
  br i1 %.not23, label %19, label %16

16:                                               ; preds = %12
  %17 = getelementptr inbounds nuw i8, ptr %4, i64 208
  %18 = load ptr, ptr %17, align 8
  tail call void %15(ptr noundef nonnull %4, ptr noundef %18) #18
  br label %19

19:                                               ; preds = %16, %12
  %20 = getelementptr inbounds nuw i8, ptr %4, i64 112
  %21 = load i8, ptr %20, align 8
  %22 = icmp slt i8 %21, 1
  br i1 %22, label %29, label %23

23:                                               ; preds = %19
  %24 = icmp eq i8 %21, 1
  br i1 %24, label %25, label %41

25:                                               ; preds = %23
  %26 = getelementptr inbounds nuw i8, ptr %4, i64 113
  %27 = load i8, ptr %26, align 1
  %28 = icmp slt i8 %27, 1
  br i1 %28, label %29, label %41

29:                                               ; preds = %25, %19
  %30 = getelementptr inbounds nuw i8, ptr %4, i64 32
  %31 = load ptr, ptr %30, align 8
  br label %32

32:                                               ; preds = %33, %29
  %.0.in.i.i = phi ptr [ %31, %29 ], [ %.0.i.i, %33 ]
  %.0.i.i = load ptr, ptr %.0.in.i.i, align 8
  %.not.i.i = icmp eq ptr %.0.i.i, null
  br i1 %.not.i.i, label %.critedge, label %33

33:                                               ; preds = %32
  %34 = getelementptr inbounds nuw i8, ptr %.0.i.i, i64 16
  %35 = load ptr, ptr %34, align 8
  %36 = tail call i32 @evutil_ascii_strcasecmp(ptr noundef %35, ptr noundef nonnull @.str.25) #18
  %37 = icmp eq i32 %36, 0
  br i1 %37, label %evhttp_find_header.exit.i, label %32, !llvm.loop !7

evhttp_find_header.exit.i:                        ; preds = %33
  %38 = getelementptr inbounds nuw i8, ptr %.0.i.i, i64 24
  %39 = load ptr, ptr %38, align 8
  %.not.i = icmp eq ptr %39, null
  br i1 %.not.i, label %.critedge, label %evhttp_is_connection_keepalive.exit

evhttp_is_connection_keepalive.exit:              ; preds = %evhttp_find_header.exit.i
  %40 = tail call i32 @evutil_ascii_strncasecmp(ptr noundef nonnull %39, ptr noundef nonnull @.str.101, i64 noundef 10) #18
  %.not26 = icmp eq i32 %40, 0
  br i1 %.not26, label %41, label %.critedge

41:                                               ; preds = %evhttp_is_connection_keepalive.exit, %25, %23
  %42 = tail call fastcc i32 @evhttp_is_request_connection_close(ptr noundef nonnull %4)
  %.not27 = icmp eq i32 %42, 0
  tail call void @evhttp_request_free(ptr noundef nonnull %4)
  br i1 %.not27, label %43, label %.sink.split

.critedge:                                        ; preds = %32, %evhttp_find_header.exit.i, %evhttp_is_connection_keepalive.exit
  tail call void @evhttp_request_free(ptr noundef nonnull %4)
  br label %.sink.split

43:                                               ; preds = %41
  %44 = tail call fastcc i32 @evhttp_associate_new_request_with_connection(ptr noundef %0)
  %45 = icmp eq i32 %44, -1
  br i1 %45, label %.sink.split, label %46

.sink.split:                                      ; preds = %43, %41, %.critedge
  tail call void @evhttp_connection_free(ptr noundef %0)
  br label %46

46:                                               ; preds = %.sink.split, %43
  ret void
}